target datalayout = "e-m:e-p270:32:32-p271:32:32-p272:64:64-i64:64-i128:128-f80:128-n8:16:32:64-S128"
target triple = "x86_64-pc-linux-gnu"

@notremoved = global i32 0, align 4
@.str.27 = private unnamed_addr constant [24 x i8] c"Can't remove file '%s'\0A\00", align 1
@.str.28 = private unnamed_addr constant [14 x i8] c"%s: Removed.\0A\00", align 1

; Function Attrs: nounwind uwtable
define internal void @action_remove(ptr noundef %0) #0 {
  %2 = alloca ptr, align 8
  %3 = alloca ptr, align 8
  store ptr %0, ptr %2, align 8
  store ptr null, ptr %3, align 8
  %4 = load ptr, ptr %2, align 8
  %5 = icmp eq ptr null, %4
  br i1 %5, label %6, label %7

6:                                                ; preds = %1
  br label %20

7:                                                ; preds = %1
  %8 = load ptr, ptr %2, align 8
  %9 = call i32 @traverse_unlink(ptr noundef %8)
  %10 = icmp ne i32 0, %9
  br i1 %10, label %11, label %16

11:                                               ; preds = %7
  %12 = load ptr, ptr %2, align 8
  %13 = call i32 (i32, ptr, ...) @logg(i32 noundef 5, ptr noundef @.str.27, ptr noundef %12)
  %14 = load i32, ptr @notremoved, align 4
  %15 = add i32 %14, 1
  store i32 %15, ptr @notremoved, align 4
  br label %19

16:                                               ; preds = %7
  %17 = load ptr, ptr %2, align 8
  %18 = call i32 (i32, ptr, ...) @logg(i32 noundef 0, ptr noundef @.str.28, ptr noundef %17)
  br label %19

19:                                               ; preds = %16, %11
  br label %20

20:                                               ; preds = %19, %6
  %21 = load ptr, ptr %3, align 8
  %22 = icmp ne ptr null, %21
  br i1 %22, label %23, label %25

23:                                               ; preds = %20
  %24 = load ptr, ptr %3, align 8
  call void @free(ptr noundef %24) #7
  br label %25

25:                                               ; preds = %23, %20
  ret void
}