; Function Attrs: nounwind uwtable
define internal void @action_remove(ptr noundef %0) #0 {
  %2 = icmp eq ptr %0, null
  br i1 %2, label %11, label %3

3:                                                ; preds = %1
  %4 = tail call fastcc i32 @traverse_unlink(ptr noundef nonnull %0), !range !5
  %.not = icmp eq i32 %4, 0
  br i1 %.not, label %9, label %5

5:                                                ; preds = %3
  %6 = tail call i32 (i32, ptr, ...) @logg(i32 noundef 5, ptr noundef nonnull @.str.27, ptr noundef nonnull %0) #11
  %7 = load i32, ptr @notremoved, align 4
  %8 = add i32 %7, 1
  store i32 %8, ptr @notremoved, align 4
  br label %11

9:                                                ; preds = %3
  %10 = tail call i32 (i32, ptr, ...) @logg(i32 noundef 0, ptr noundef nonnull @.str.28, ptr noundef nonnull %0) #11
  br label %11

11:                                               ; preds = %1, %9, %5
  ret void
}